; Function Attrs: nounwind uwtable
define noalias noundef ptr @Rnm_ManFilterSelectedNew(ptr noundef readonly captures(none) %0, ptr noundef readonly captures(none) %1) local_unnamed_addr #2 {
  %3 = load i32, ptr @Rnm_ManFilterSelectedNew.Counter, align 4, !tbaa !20
  %4 = add nsw i32 %3, 1
  store i32 %4, ptr @Rnm_ManFilterSelectedNew.Counter, align 4, !tbaa !20
  %5 = srem i32 %4, 9
  %6 = icmp eq i32 %5, 0
  br i1 %6, label %7, label %20

7:                                                ; preds = %2
  %8 = tail call noalias dereferenceable_or_null(16) ptr @malloc(i64 noundef 16) #11
  %9 = getelementptr inbounds nuw i8, ptr %1, i64 4
  %10 = load i32, ptr %9, align 4, !tbaa !15
  %11 = getelementptr inbounds nuw i8, ptr %8, i64 4
  store i32 %10, ptr %11, align 4, !tbaa !15
  store i32 %10, ptr %8, align 8, !tbaa !54
  %.not.i = icmp eq i32 %10, 0
  br i1 %.not.i, label %Vec_IntDup.exit, label %12

12:                                               ; preds = %7
  %13 = sext i32 %10 to i64
  %14 = shl nsw i64 %13, 2
  %15 = tail call noalias ptr @malloc(i64 noundef %14) #11
  br label %Vec_IntDup.exit

Vec_IntDup.exit:                                  ; preds = %7, %12
  %.pre-phi12.i = phi i64 [ %14, %12 ], [ 0, %7 ]
  %16 = phi ptr [ %15, %12 ], [ null, %7 ]
  %17 = getelementptr inbounds nuw i8, ptr %8, i64 8
  store ptr %16, ptr %17, align 8, !tbaa !19
  %18 = getelementptr inbounds nuw i8, ptr %1, i64 8
  %19 = load ptr, ptr %18, align 8, !tbaa !19
  tail call void @llvm.memcpy.p0.p0.i64(ptr align 4 %16, ptr align 4 %19, i64 %.pre-phi12.i, i1 false)
  br label %22

20:                                               ; preds = %2
  %21 = tail call ptr @Rnm_ManFilterSelected(ptr noundef %0, ptr noundef %1)
  br label %22

22:                                               ; preds = %20, %Vec_IntDup.exit
  %.0 = phi ptr [ %8, %Vec_IntDup.exit ], [ %21, %20 ]
  ret ptr %.0
}